target datalayout = "e-m:e-p270:32:32-p271:32:32-p272:64:64-i64:64-i128:128-f80:128-n8:16:32:64-S128"
target triple = "x86_64-pc-linux-gnu"

%struct._zval_struct = type { %union._zend_value, %union.anon.0, %union.anon.3 }
%union._zend_value = type { i64 }
%union.anon.0 = type { i32 }
%union.anon.3 = type { i32 }
%struct._zend_refcounted_h = type { i32, %union.anon }
%union.anon = type { i32 }

; Function Attrs: nounwind uwtable
define internal void @free_param_name(ptr noundef %0) #0 {
  %2 = alloca ptr, align 8
  %3 = alloca i32, align 4
  %4 = alloca i32, align 4
  %5 = alloca ptr, align 8
  %6 = alloca ptr, align 8
  store ptr %0, ptr %6, align 8
  %7 = load ptr, ptr %6, align 8
  %8 = getelementptr inbounds %struct._zval_struct, ptr %7, i32 0, i32 0
  %9 = load ptr, ptr %8, align 8
  store ptr %9, ptr %5, align 8
  %10 = load ptr, ptr %5, align 8
  %11 = getelementptr inbounds %struct._zend_refcounted_h, ptr %10, i32 0, i32 1
  %12 = load i32, ptr %11, align 4
  store i32 %12, ptr %3, align 4
  %13 = load i32, ptr %3, align 4
  %14 = and i32 %13, 1008
  %15 = and i32 %14, 64
  %16 = icmp ne i32 %15, 0
  br i1 %16, label %40, label %17

17:                                               ; preds = %1
  %18 = load ptr, ptr %5, align 8
  store ptr %18, ptr %2, align 8
  %19 = load ptr, ptr %2, align 8
  %20 = load i32, ptr %19, align 4
  %21 = icmp ugt i32 %20, 0
  call void @llvm.assume(i1 %21)
  %22 = load ptr, ptr %2, align 8
  %23 = load i32, ptr %22, align 4
  %24 = add i32 %23, -1
  store i32 %24, ptr %22, align 4
  %25 = icmp eq i32 %24, 0
  br i1 %25, label %26, label %39

26:                                               ; preds = %17
  %27 = load ptr, ptr %5, align 8
  %28 = getelementptr inbounds %struct._zend_refcounted_h, ptr %27, i32 0, i32 1
  %29 = load i32, ptr %28, align 4
  store i32 %29, ptr %4, align 4
  %30 = load i32, ptr %4, align 4
  %31 = and i32 %30, 1008
  %32 = and i32 %31, 128
  %33 = icmp ne i32 %32, 0
  br i1 %33, label %34, label %36

34:                                               ; preds = %26
  %35 = load ptr, ptr %5, align 8
  call void @free(ptr noundef %35) #11
  br label %38

36:                                               ; preds = %26
  %37 = load ptr, ptr %5, align 8
  call void @_efree(ptr noundef %37) #11
  br label %38

38:                                               ; preds = %36, %34
  br label %39

39:                                               ; preds = %38, %17
  br label %40

40:                                               ; preds = %39, %1
  ret void
}